; Function Attrs: null_pointer_is_valid sspstrong uwtable
define noundef ptr @proto_tree_add_uint64_bits_format_value(ptr noundef %0, i32 noundef %1, ptr noundef %2, i32 noundef %3, i32 noundef %4, i64 noundef %5, i32 noundef %6, ptr noundef %7, ...) local_unnamed_addr #0 {
  %9 = alloca i64, align 8
  %10 = alloca [1 x %struct.__va_list_tag], align 16
  store i64 %5, ptr %9, align 8
  call void @llvm.lifetime.start.p0(i64 24, ptr nonnull %10) #39
  %.not = icmp eq ptr %0, null
  br i1 %.not, label %93, label %11

11:                                               ; preds = %8
  %12 = getelementptr inbounds nuw i8, ptr %0, i64 48
  %13 = load ptr, ptr %12, align 8
  %14 = getelementptr inbounds nuw i8, ptr %13, i64 12
  %15 = load i32, ptr %14, align 4
  %16 = add i32 %15, 1
  store i32 %16, ptr %14, align 4
  %17 = load i32, ptr @gpa_hfinfo.0, align 8
  %18 = freeze i32 %17
  %19 = add i32 %1, -1
  %or.cond.not = icmp ult i32 %19, %18
  br i1 %or.cond.not, label %24, label %20

20:                                               ; preds = %11
  %21 = load i8, ptr @wireshark_abort_on_dissector_bug, align 1, !range !10, !noundef !11
  %22 = trunc nuw i8 %21 to i1
  br i1 %22, label %23, label %24

23:                                               ; preds = %20
  tail call void (ptr, i32, ptr, i64, ptr, ptr, ...) @ws_log_fatal_full(ptr noundef nonnull @.str, i32 noundef 7, ptr noundef nonnull @.str.1, i64 noundef 13693, ptr noundef nonnull @__func__.proto_tree_add_uint64_bits_format_value, ptr noundef nonnull @.str.2, i32 noundef %1) #37
  unreachable

24:                                               ; preds = %11, %20
  %25 = icmp sgt i32 %1, 0
  %26 = icmp ult i32 %1, %18
  %or.cond44 = and i1 %25, %26
  br i1 %or.cond44, label %28, label %27

27:                                               ; preds = %24
  tail call void (ptr, ...) @proto_report_dissector_bug(ptr noundef nonnull @.str.3, ptr noundef nonnull @.str.1, i32 noundef 13693, ptr noundef nonnull @.str.7, ptr noundef nonnull @.str.5) #37
  unreachable

28:                                               ; preds = %24
  %29 = load ptr, ptr @gpa_hfinfo.2, align 8
  %30 = zext nneg i32 %1 to i64
  %31 = getelementptr ptr, ptr %29, i64 %30
  %32 = load ptr, ptr %31, align 8
  %.not38 = icmp eq ptr %32, null
  br i1 %.not38, label %33, label %34

33:                                               ; preds = %28
  tail call void (ptr, ...) @proto_report_dissector_bug(ptr noundef nonnull @.str.3, ptr noundef nonnull @.str.1, i32 noundef 13693, ptr noundef nonnull @.str.8, ptr noundef nonnull @.str.5) #37
  unreachable

34:                                               ; preds = %28
  %35 = load ptr, ptr %12, align 8
  %36 = getelementptr inbounds nuw i8, ptr %35, i64 12
  %37 = load i32, ptr %36, align 4
  %38 = load i32, ptr getelementptr inbounds nuw (i8, ptr @prefs, i64 232), align 8
  %39 = icmp ugt i32 %37, %38
  br i1 %39, label %40, label %56

40:                                               ; preds = %34
  %41 = load i8, ptr @wireshark_abort_on_too_many_items, align 1, !range !10, !noundef !11
  %42 = trunc nuw i8 %41 to i1
  br i1 %42, label %43, label %46

43:                                               ; preds = %40
  %44 = getelementptr inbounds nuw i8, ptr %32, i64 8
  %45 = load ptr, ptr %44, align 8
  tail call void (ptr, i32, ptr, i64, ptr, ptr, ...) @ws_log_fatal_full(ptr noundef nonnull @.str, i32 noundef 7, ptr noundef nonnull @.str.1, i64 noundef 13693, ptr noundef nonnull @__func__.proto_tree_add_uint64_bits_format_value, ptr noundef nonnull @.str.12, ptr noundef %45, i32 noundef %38) #37
  unreachable

46:                                               ; preds = %40
  store i32 0, ptr %36, align 4
  %47 = load ptr, ptr %12, align 8
  %48 = getelementptr inbounds nuw i8, ptr %47, i64 16
  %49 = load ptr, ptr %48, align 8
  %50 = getelementptr inbounds nuw i8, ptr %49, i64 408
  %51 = load ptr, ptr %50, align 8
  %52 = getelementptr inbounds nuw i8, ptr %32, i64 8
  %53 = load ptr, ptr %52, align 8
  %54 = load i32, ptr getelementptr inbounds nuw (i8, ptr @prefs, i64 232), align 8
  %55 = tail call noalias ptr (ptr, ptr, ...) @wmem_strdup_printf(ptr noundef %51, ptr noundef nonnull @.str.12, ptr noundef %53, i32 noundef %54)
  tail call void @except_throw(i64 noundef 1, i64 noundef 6, ptr noundef %55) #37
  unreachable

56:                                               ; preds = %34
  %57 = getelementptr inbounds nuw i8, ptr %35, i64 8
  %58 = load i8, ptr %57, align 8, !range !10, !noundef !11
  %59 = trunc nuw i8 %58 to i1
  br i1 %59, label %78, label %60

60:                                               ; preds = %56
  %61 = getelementptr inbounds nuw i8, ptr %0, i64 40
  %62 = load ptr, ptr %61, align 8
  %.not7.i = icmp eq ptr %62, null
  br i1 %.not7.i, label %proto_item_is_hidden.exit.thread, label %proto_item_is_hidden.exit

proto_item_is_hidden.exit:                        ; preds = %60
  %63 = getelementptr inbounds nuw i8, ptr %62, i64 28
  %64 = load i32, ptr %63, align 4
  %65 = and i32 %64, 1
  %.not48 = icmp eq i32 %65, 0
  br i1 %.not48, label %78, label %proto_item_is_hidden.exit.thread

proto_item_is_hidden.exit.thread:                 ; preds = %60, %proto_item_is_hidden.exit
  %66 = getelementptr inbounds nuw i8, ptr %32, i64 56
  %67 = load i32, ptr %66, align 8
  %68 = and i32 %67, -2
  %switch46 = icmp eq i32 %68, 2
  br i1 %switch46, label %78, label %69

69:                                               ; preds = %proto_item_is_hidden.exit.thread
  %70 = getelementptr inbounds nuw i8, ptr %32, i64 16
  %71 = load i32, ptr %70, align 8
  %.not41 = icmp eq i32 %71, 1
  br i1 %.not41, label %72, label %76

72:                                               ; preds = %69
  %73 = getelementptr inbounds nuw i8, ptr %35, i64 9
  %74 = load i8, ptr %73, align 1, !range !10, !noundef !11
  %75 = trunc nuw i8 %74 to i1
  br i1 %75, label %76, label %78

76:                                               ; preds = %72, %69
  %77 = tail call fastcc ptr @proto_tree_add_fake_node(ptr noundef nonnull %0, ptr noundef %32)
  br label %93

78:                                               ; preds = %proto_item_is_hidden.exit.thread, %proto_item_is_hidden.exit, %72, %56
  %79 = getelementptr inbounds nuw i8, ptr %32, i64 16
  %80 = load i32, ptr %79, align 8
  %81 = and i32 %80, -4
  %switch = icmp eq i32 %81, 8
  br i1 %switch, label %85, label %82

82:                                               ; preds = %78
  %83 = getelementptr inbounds nuw i8, ptr %32, i64 8
  %84 = load ptr, ptr %83, align 8
  tail call void (ptr, ...) @proto_report_dissector_bug(ptr noundef nonnull @.str.26, ptr noundef %84) #37
  unreachable

85:                                               ; preds = %78
  call void @llvm.va_start.p0(ptr nonnull %10)
  %86 = load ptr, ptr %12, align 8
  %87 = getelementptr inbounds nuw i8, ptr %86, i64 16
  %88 = load ptr, ptr %87, align 8
  %89 = getelementptr inbounds nuw i8, ptr %88, i64 408
  %90 = load ptr, ptr %89, align 8
  %91 = call noalias ptr @wmem_strdup_vprintf(ptr noundef %90, ptr noundef %7, ptr noundef nonnull %10)
  call void @llvm.va_end.p0(ptr nonnull %10)
  %92 = call fastcc ptr @proto_tree_add_bits_format_value(ptr noundef %0, i32 noundef %1, ptr noundef %2, i32 noundef %3, i32 noundef %4, ptr noundef nonnull %9, i32 noundef %6, ptr noundef %91)
  br label %93

93:                                               ; preds = %8, %85, %76
  %.0 = phi ptr [ %92, %85 ], [ %77, %76 ], [ null, %8 ]
  call void @llvm.lifetime.end.p0(i64 24, ptr nonnull %10) #39
  ret ptr %.0
}